target datalayout = "e-m:e-p270:32:32-p271:32:32-p272:64:64-i64:64-i128:128-f80:128-n8:16:32:64-S128"
target triple = "x86_64-unknown-linux-gnu"

%"struct.ClipperLib::IntPoint" = type { i64, i64 }
%"struct.ClipperLib::OutRec" = type { i32, i8, i8, ptr, ptr, ptr, ptr }
%"struct.ClipperLib::TEdge" = type { %"struct.ClipperLib::IntPoint", %"struct.ClipperLib::IntPoint", %"struct.ClipperLib::IntPoint", double, i32, i32, i32, i32, i32, i32, ptr, ptr, ptr, ptr, ptr, ptr, ptr }
%"class.__gnu_cxx::__normal_iterator" = type { ptr }
%"class.ClipperLib::ClipperBase" = type { ptr, %"class.__gnu_cxx::__normal_iterator", %"class.std::vector.5", i8, %"class.std::vector.10", i8, i8, %"class.std::vector.15", ptr, %"class.std::priority_queue" }
%"class.std::vector.5" = type { %"struct.std::_Vector_base.6" }
%"struct.std::_Vector_base.6" = type { %"struct.std::_Vector_base<ClipperLib::LocalMinimum, std::allocator<ClipperLib::LocalMinimum>>::_Vector_impl" }
%"struct.std::_Vector_base<ClipperLib::LocalMinimum, std::allocator<ClipperLib::LocalMinimum>>::_Vector_impl" = type { %"struct.std::_Vector_base<ClipperLib::LocalMinimum, std::allocator<ClipperLib::LocalMinimum>>::_Vector_impl_data" }
%"struct.std::_Vector_base<ClipperLib::LocalMinimum, std::allocator<ClipperLib::LocalMinimum>>::_Vector_impl_data" = type { ptr, ptr, ptr }
%"class.std::vector.10" = type { %"struct.std::_Vector_base.11" }
%"struct.std::_Vector_base.11" = type { %"struct.std::_Vector_base<ClipperLib::TEdge *, std::allocator<ClipperLib::TEdge *>>::_Vector_impl" }
%"struct.std::_Vector_base<ClipperLib::TEdge *, std::allocator<ClipperLib::TEdge *>>::_Vector_impl" = type { %"struct.std::_Vector_base<ClipperLib::TEdge *, std::allocator<ClipperLib::TEdge *>>::_Vector_impl_data" }
%"struct.std::_Vector_base<ClipperLib::TEdge *, std::allocator<ClipperLib::TEdge *>>::_Vector_impl_data" = type { ptr, ptr, ptr }
%"class.std::vector.15" = type { %"struct.std::_Vector_base.16" }
%"struct.std::_Vector_base.16" = type { %"struct.std::_Vector_base<ClipperLib::OutRec *, std::allocator<ClipperLib::OutRec *>>::_Vector_impl" }
%"struct.std::_Vector_base<ClipperLib::OutRec *, std::allocator<ClipperLib::OutRec *>>::_Vector_impl" = type { %"struct.std::_Vector_base<ClipperLib::OutRec *, std::allocator<ClipperLib::OutRec *>>::_Vector_impl_data" }
%"struct.std::_Vector_base<ClipperLib::OutRec *, std::allocator<ClipperLib::OutRec *>>::_Vector_impl_data" = type { ptr, ptr, ptr }
%"class.std::priority_queue" = type <{ %"class.std::vector.20", %"struct.std::less", [7 x i8] }>
%"class.std::vector.20" = type { %"struct.std::_Vector_base.21" }
%"struct.std::_Vector_base.21" = type { %"struct.std::_Vector_base<long long, std::allocator<long long>>::_Vector_impl" }
%"struct.std::_Vector_base<long long, std::allocator<long long>>::_Vector_impl" = type { %"struct.std::_Vector_base<long long, std::allocator<long long>>::_Vector_impl_data" }
%"struct.std::_Vector_base<long long, std::allocator<long long>>::_Vector_impl_data" = type { ptr, ptr, ptr }
%"struct.std::less" = type { i8 }

; Function Attrs: mustprogress nounwind uwtable
define linkonce_odr hidden noundef nonnull align 8 dereferenceable(8) ptr @_ZNSt6vectorIPN10ClipperLib6OutRecESaIS2_EEixEm(ptr noundef nonnull align 8 dereferenceable(24) %this, i64 noundef %__n) #1 comdat align 2 {
entry:
  %this.addr = alloca ptr, align 8
  %__n.addr = alloca i64, align 8
  store ptr %this, ptr %this.addr, align 8
  store i64 %__n, ptr %__n.addr, align 8
  %this1 = load ptr, ptr %this.addr, align 8
  %_M_impl = getelementptr inbounds %"struct.std::_Vector_base.16", ptr %this1, i32 0, i32 0
  %_M_start = getelementptr inbounds %"struct.std::_Vector_base<ClipperLib::OutRec *, std::allocator<ClipperLib::OutRec *>>::_Vector_impl_data", ptr %_M_impl, i32 0, i32 0
  %0 = load ptr, ptr %_M_start, align 8
  %1 = load i64, ptr %__n.addr, align 8
  %add.ptr = getelementptr inbounds ptr, ptr %0, i64 %1
  ret ptr %add.ptr
}

; Function Attrs: mustprogress nounwind uwtable
define hidden void @_ZN10ClipperLib7Clipper12SetHoleStateEPNS_5TEdgeEPNS_6OutRecE(ptr noundef nonnull align 8 dereferenceable(135) %this, ptr noundef %e, ptr noundef %outrec) #1 align 2 {
entry:
  %this.addr = alloca ptr, align 8
  %e.addr = alloca ptr, align 8
  %outrec.addr = alloca ptr, align 8
  %e2 = alloca ptr, align 8
  %eTmp = alloca ptr, align 8
  store ptr %this, ptr %this.addr, align 8
  store ptr %e, ptr %e.addr, align 8
  store ptr %outrec, ptr %outrec.addr, align 8
  %this1 = load ptr, ptr %this.addr, align 8
  %0 = load ptr, ptr %e.addr, align 8
  %PrevInAEL = getelementptr inbounds %"struct.ClipperLib::TEdge", ptr %0, i32 0, i32 14
  %1 = load ptr, ptr %PrevInAEL, align 8
  store ptr %1, ptr %e2, align 8
  store ptr null, ptr %eTmp, align 8
  br label %while.cond

while.cond:                                       ; preds = %if.end10, %entry
  %2 = load ptr, ptr %e2, align 8
  %tobool = icmp ne ptr %2, null
  br i1 %tobool, label %while.body, label %while.end

while.body:                                       ; preds = %while.cond
  %3 = load ptr, ptr %e2, align 8
  %OutIdx = getelementptr inbounds %"struct.ClipperLib::TEdge", ptr %3, i32 0, i32 9
  %4 = load i32, ptr %OutIdx, align 4
  %cmp = icmp sge i32 %4, 0
  br i1 %cmp, label %land.lhs.true, label %if.end10

land.lhs.true:                                    ; preds = %while.body
  %5 = load ptr, ptr %e2, align 8
  %WindDelta = getelementptr inbounds %"struct.ClipperLib::TEdge", ptr %5, i32 0, i32 6
  %6 = load i32, ptr %WindDelta, align 8
  %cmp2 = icmp ne i32 %6, 0
  br i1 %cmp2, label %if.then, label %if.end10

if.then:                                          ; preds = %land.lhs.true
  %7 = load ptr, ptr %eTmp, align 8
  %tobool3 = icmp ne ptr %7, null
  br i1 %tobool3, label %if.else, label %if.then4

if.then4:                                         ; preds = %if.then
  %8 = load ptr, ptr %e2, align 8
  store ptr %8, ptr %eTmp, align 8
  br label %if.end9

if.else:                                          ; preds = %if.then
  %9 = load ptr, ptr %eTmp, align 8
  %OutIdx5 = getelementptr inbounds %"struct.ClipperLib::TEdge", ptr %9, i32 0, i32 9
  %10 = load i32, ptr %OutIdx5, align 4
  %11 = load ptr, ptr %e2, align 8
  %OutIdx6 = getelementptr inbounds %"struct.ClipperLib::TEdge", ptr %11, i32 0, i32 9
  %12 = load i32, ptr %OutIdx6, align 4
  %cmp7 = icmp eq i32 %10, %12
  br i1 %cmp7, label %if.then8, label %if.end

if.then8:                                         ; preds = %if.else
  store ptr null, ptr %eTmp, align 8
  br label %if.end

if.end:                                           ; preds = %if.then8, %if.else
  br label %if.end9

if.end9:                                          ; preds = %if.end, %if.then4
  br label %if.end10

if.end10:                                         ; preds = %if.end9, %land.lhs.true, %while.body
  %13 = load ptr, ptr %e2, align 8
  %PrevInAEL11 = getelementptr inbounds %"struct.ClipperLib::TEdge", ptr %13, i32 0, i32 14
  %14 = load ptr, ptr %PrevInAEL11, align 8
  store ptr %14, ptr %e2, align 8
  br label %while.cond, !llvm.loop !81

while.end:                                        ; preds = %while.cond
  %15 = load ptr, ptr %eTmp, align 8
  %tobool12 = icmp ne ptr %15, null
  br i1 %tobool12, label %if.else14, label %if.then13

if.then13:                                        ; preds = %while.end
  %16 = load ptr, ptr %outrec.addr, align 8
  %FirstLeft = getelementptr inbounds %"struct.ClipperLib::OutRec", ptr %16, i32 0, i32 3
  store ptr null, ptr %FirstLeft, align 8
  %17 = load ptr, ptr %outrec.addr, align 8
  %IsHole = getelementptr inbounds %"struct.ClipperLib::OutRec", ptr %17, i32 0, i32 1
  store i8 0, ptr %IsHole, align 4
  br label %if.end21

if.else14:                                        ; preds = %while.end
  %vtable = load ptr, ptr %this1, align 8
  %vbase.offset.ptr = getelementptr i8, ptr %vtable, i64 -24
  %vbase.offset = load i64, ptr %vbase.offset.ptr, align 8
  %add.ptr = getelementptr inbounds i8, ptr %this1, i64 %vbase.offset
  %m_PolyOuts = getelementptr inbounds %"class.ClipperLib::ClipperBase", ptr %add.ptr, i32 0, i32 7
  %18 = load ptr, ptr %eTmp, align 8
  %OutIdx15 = getelementptr inbounds %"struct.ClipperLib::TEdge", ptr %18, i32 0, i32 9
  %19 = load i32, ptr %OutIdx15, align 4
  %conv = sext i32 %19 to i64
  %call = call noundef nonnull align 8 dereferenceable(8) ptr @_ZNSt6vectorIPN10ClipperLib6OutRecESaIS2_EEixEm(ptr noundef nonnull align 8 dereferenceable(24) %m_PolyOuts, i64 noundef %conv) #13
  %20 = load ptr, ptr %call, align 8
  %21 = load ptr, ptr %outrec.addr, align 8
  %FirstLeft16 = getelementptr inbounds %"struct.ClipperLib::OutRec", ptr %21, i32 0, i32 3
  store ptr %20, ptr %FirstLeft16, align 8
  %22 = load ptr, ptr %outrec.addr, align 8
  %FirstLeft17 = getelementptr inbounds %"struct.ClipperLib::OutRec", ptr %22, i32 0, i32 3
  %23 = load ptr, ptr %FirstLeft17, align 8
  %IsHole18 = getelementptr inbounds %"struct.ClipperLib::OutRec", ptr %23, i32 0, i32 1
  %24 = load i8, ptr %IsHole18, align 4
  %tobool19 = trunc i8 %24 to i1
  %lnot = xor i1 %tobool19, true
  %25 = load ptr, ptr %outrec.addr, align 8
  %IsHole20 = getelementptr inbounds %"struct.ClipperLib::OutRec", ptr %25, i32 0, i32 1
  %frombool = zext i1 %lnot to i8
  store i8 %frombool, ptr %IsHole20, align 4
  br label %if.end21

if.end21:                                         ; preds = %if.else14, %if.then13
  ret void
}