; Function Attrs: mustprogress nofree norecurse nosync nounwind memory(read, argmem: readwrite, inaccessiblemem: none) uwtable
define hidden void @_ZN10ClipperLib7Clipper12SetHoleStateEPNS_5TEdgeEPNS_6OutRecE(ptr nocapture noundef nonnull readonly align 8 dereferenceable(135) %this, ptr nocapture noundef readonly %e, ptr nocapture noundef writeonly %outrec) local_unnamed_addr #16 align 2 {
entry:
  %e2.0.in13 = getelementptr inbounds i8, ptr %e, i64 112
  %e2.014 = load ptr, ptr %e2.0.in13, align 8
  %tobool.not15 = icmp eq ptr %e2.014, null
  br i1 %tobool.not15, label %if.then13, label %while.body

while.body:                                       ; preds = %entry, %if.end10
  %e2.017 = phi ptr [ %e2.0, %if.end10 ], [ %e2.014, %entry ]
  %eTmp.016 = phi ptr [ %eTmp.1, %if.end10 ], [ null, %entry ]
  %OutIdx = getelementptr inbounds i8, ptr %e2.017, i64 76
  %0 = load i32, ptr %OutIdx, align 4
  %cmp = icmp sgt i32 %0, -1
  br i1 %cmp, label %land.lhs.true, label %if.end10

land.lhs.true:                                    ; preds = %while.body
  %WindDelta = getelementptr inbounds i8, ptr %e2.017, i64 64
  %1 = load i32, ptr %WindDelta, align 8
  %cmp2.not = icmp eq i32 %1, 0
  br i1 %cmp2.not, label %if.end10, label %if.then

if.then:                                          ; preds = %land.lhs.true
  %tobool3.not = icmp eq ptr %eTmp.016, null
  br i1 %tobool3.not, label %if.end10, label %if.else

if.else:                                          ; preds = %if.then
  %OutIdx5 = getelementptr inbounds i8, ptr %eTmp.016, i64 76
  %2 = load i32, ptr %OutIdx5, align 4
  %cmp7 = icmp eq i32 %2, %0
  %spec.store.select = select i1 %cmp7, ptr null, ptr %eTmp.016
  br label %if.end10

if.end10:                                         ; preds = %if.then, %if.else, %land.lhs.true, %while.body
  %eTmp.1 = phi ptr [ %spec.store.select, %if.else ], [ %eTmp.016, %land.lhs.true ], [ %eTmp.016, %while.body ], [ %e2.017, %if.then ]
  %e2.0.in = getelementptr inbounds i8, ptr %e2.017, i64 112
  %e2.0 = load ptr, ptr %e2.0.in, align 8
  %tobool.not = icmp eq ptr %e2.0, null
  br i1 %tobool.not, label %while.end, label %while.body, !llvm.loop !109

while.end:                                        ; preds = %if.end10
  %tobool12.not = icmp eq ptr %eTmp.1, null
  br i1 %tobool12.not, label %if.then13, label %if.else14

if.then13:                                        ; preds = %entry, %while.end
  %FirstLeft = getelementptr inbounds i8, ptr %outrec, i64 8
  store ptr null, ptr %FirstLeft, align 8
  br label %if.end21

if.else14:                                        ; preds = %while.end
  %vtable = load ptr, ptr %this, align 8
  %vbase.offset.ptr = getelementptr i8, ptr %vtable, i64 -24
  %vbase.offset = load i64, ptr %vbase.offset.ptr, align 8
  %add.ptr = getelementptr inbounds i8, ptr %this, i64 %vbase.offset
  %m_PolyOuts = getelementptr inbounds i8, ptr %add.ptr, i64 80
  %OutIdx15 = getelementptr inbounds i8, ptr %eTmp.1, i64 76
  %3 = load i32, ptr %OutIdx15, align 4
  %conv = sext i32 %3 to i64
  %4 = load ptr, ptr %m_PolyOuts, align 8
  %add.ptr.i = getelementptr inbounds ptr, ptr %4, i64 %conv
  %5 = load ptr, ptr %add.ptr.i, align 8
  %FirstLeft16 = getelementptr inbounds i8, ptr %outrec, i64 8
  store ptr %5, ptr %FirstLeft16, align 8
  %IsHole18 = getelementptr inbounds i8, ptr %5, i64 4
  %6 = load i8, ptr %IsHole18, align 4
  %7 = and i8 %6, 1
  %frombool = xor i8 %7, 1
  br label %if.end21

if.end21:                                         ; preds = %if.else14, %if.then13
  %frombool.sink = phi i8 [ 0, %if.then13 ], [ %frombool, %if.else14 ]
  %8 = getelementptr inbounds i8, ptr %outrec, i64 4
  store i8 %frombool.sink, ptr %8, align 4
  ret void
}